target datalayout = "e-m:e-p270:32:32-p271:32:32-p272:64:64-i64:64-i128:128-f80:128-n8:16:32:64-S128"
target triple = "x86_64-pc-linux-gnu"

%struct.moveGroupType = type { i32, [7 x i32], [7 x i32], [7 x i32], [7 x i32] }
%class.Moves = type { i32, i32, i32, i32, i32, i32, i32, i32, i32, [13 x %"struct.Moves::trackType"], ptr, [13 x [4 x %struct.movePlyType]], ptr, [13 x [4 x i32]], [13 x %"class.std::__cxx11::basic_string"], [13 x [4 x %"struct.Moves::moveStatType"]], [13 x [4 x %"struct.Moves::moveStatType"]], [13 x [4 x %"struct.Moves::moveStatsType"]], [13 x [4 x %"struct.Moves::moveStatsType"]], %"struct.Moves::moveStatsType", %"struct.Moves::moveStatsType", [16 x { i64, i64 }] }
%"struct.Moves::trackType" = type { i32, i32, [4 x i32], [4 x i32], %struct.trickDataType, [4 x %struct.extCard], [4 x i32], [4 x [4 x i32]], [4 x i32] }
%struct.trickDataType = type { [4 x i32], i32, i32, i32, i32, i32 }
%struct.extCard = type { i32, i32, i32 }
%struct.movePlyType = type { [14 x %struct.moveType], i32, i32 }
%struct.moveType = type { i32, i32, i32, i32 }
%"class.std::__cxx11::basic_string" = type { %"struct.std::__cxx11::basic_string<char>::_Alloc_hider", i64, %union.anon }
%"struct.std::__cxx11::basic_string<char>::_Alloc_hider" = type { ptr }
%union.anon = type { i64, [8 x i8] }
%"struct.Moves::moveStatType" = type { i32, i32, i32, i32 }
%"struct.Moves::moveStatsType" = type { i32, [13 x %"struct.Moves::moveStatType"] }

@groupData = external global [8192 x %struct.moveGroupType], align 16

; Function Attrs: mustprogress nounwind uwtable
define noundef i32 @_ZNK5Moves13RankForcesAceEi(ptr noundef nonnull align 8 dereferenceable(39992) %0, i32 noundef %1) #5 align 2 {
  %3 = alloca i32, align 4
  %4 = alloca ptr, align 8
  %5 = alloca i32, align 4
  %6 = alloca ptr, align 8
  %7 = alloca i32, align 4
  %8 = alloca i32, align 4
  %9 = alloca i32, align 4
  %10 = alloca i32, align 4
  %11 = alloca i32, align 4
  store ptr %0, ptr %4, align 8
  store i32 %1, ptr %5, align 4
  %12 = load ptr, ptr %4, align 8
  %13 = load i32, ptr %5, align 4
  %14 = sext i32 %13 to i64
  %15 = getelementptr inbounds [8192 x %struct.moveGroupType], ptr @groupData, i64 0, i64 %14
  store ptr %15, ptr %6, align 8
  %16 = load ptr, ptr %6, align 8
  %17 = getelementptr inbounds nuw %struct.moveGroupType, ptr %16, i32 0, i32 0
  %18 = load i32, ptr %17, align 4
  store i32 %18, ptr %7, align 4
  %19 = getelementptr inbounds nuw %class.Moves, ptr %12, i32 0, i32 10
  %20 = load ptr, ptr %19, align 8
  %21 = getelementptr inbounds nuw %"struct.Moves::trackType", ptr %20, i32 0, i32 8
  %22 = getelementptr inbounds nuw %class.Moves, ptr %12, i32 0, i32 1
  %23 = load i32, ptr %22, align 4
  %24 = sext i32 %23 to i64
  %25 = getelementptr inbounds [4 x i32], ptr %21, i64 0, i64 %24
  %26 = load i32, ptr %25, align 4
  store i32 %26, ptr %8, align 4
  br label %27

27:                                               ; preds = %48, %2
  %28 = load i32, ptr %7, align 4
  %29 = icmp sge i32 %28, 1
  br i1 %29, label %30, label %46

30:                                               ; preds = %27
  %31 = load ptr, ptr %6, align 8
  %32 = getelementptr inbounds nuw %struct.moveGroupType, ptr %31, i32 0, i32 4
  %33 = load i32, ptr %7, align 4
  %34 = sext i32 %33 to i64
  %35 = getelementptr inbounds [7 x i32], ptr %32, i64 0, i64 %34
  %36 = load i32, ptr %35, align 4
  %37 = load i32, ptr %8, align 4
  %38 = and i32 %36, %37
  %39 = load ptr, ptr %6, align 8
  %40 = getelementptr inbounds nuw %struct.moveGroupType, ptr %39, i32 0, i32 4
  %41 = load i32, ptr %7, align 4
  %42 = sext i32 %41 to i64
  %43 = getelementptr inbounds [7 x i32], ptr %40, i64 0, i64 %42
  %44 = load i32, ptr %43, align 4
  %45 = icmp eq i32 %38, %44
  br label %46

46:                                               ; preds = %30, %27
  %47 = phi i1 [ false, %27 ], [ %45, %30 ]
  br i1 %47, label %48, label %51

48:                                               ; preds = %46
  %49 = load i32, ptr %7, align 4
  %50 = add nsw i32 %49, -1
  store i32 %50, ptr %7, align 4
  br label %27, !llvm.loop !71

51:                                               ; preds = %46
  %52 = load i32, ptr %7, align 4
  %53 = icmp ne i32 %52, 0
  br i1 %53, label %55, label %54

54:                                               ; preds = %51
  store i32 -1, ptr %3, align 4
  br label %147

55:                                               ; preds = %51
  %56 = load i32, ptr %7, align 4
  %57 = icmp eq i32 %56, 0
  br i1 %57, label %58, label %59

58:                                               ; preds = %55
  br label %67

59:                                               ; preds = %55
  %60 = load ptr, ptr %6, align 8
  %61 = getelementptr inbounds nuw %struct.moveGroupType, ptr %60, i32 0, i32 1
  %62 = load i32, ptr %7, align 4
  %63 = sub nsw i32 %62, 1
  %64 = sext i32 %63 to i64
  %65 = getelementptr inbounds [7 x i32], ptr %61, i64 0, i64 %64
  %66 = load i32, ptr %65, align 4
  br label %67

67:                                               ; preds = %59, %58
  %68 = phi i32 [ 0, %58 ], [ %66, %59 ]
  store i32 %68, ptr %9, align 4
  %69 = load i32, ptr %9, align 4
  %70 = getelementptr inbounds nuw %class.Moves, ptr %12, i32 0, i32 10
  %71 = load ptr, ptr %70, align 8
  %72 = getelementptr inbounds nuw %"struct.Moves::trackType", ptr %71, i32 0, i32 5
  %73 = getelementptr inbounds [4 x %struct.extCard], ptr %72, i64 0, i64 1
  %74 = getelementptr inbounds nuw %struct.extCard, ptr %73, i32 0, i32 1
  %75 = load i32, ptr %74, align 4
  %76 = icmp sgt i32 %69, %75
  br i1 %76, label %77, label %105

77:                                               ; preds = %67
  store i32 0, ptr %10, align 4
  br label %78

78:                                               ; preds = %95, %77
  %79 = load i32, ptr %10, align 4
  %80 = getelementptr inbounds nuw %class.Moves, ptr %12, i32 0, i32 7
  %81 = load i32, ptr %80, align 4
  %82 = icmp slt i32 %79, %81
  br i1 %82, label %83, label %93

83:                                               ; preds = %78
  %84 = getelementptr inbounds nuw %class.Moves, ptr %12, i32 0, i32 12
  %85 = load ptr, ptr %84, align 8
  %86 = load i32, ptr %10, align 4
  %87 = sext i32 %86 to i64
  %88 = getelementptr inbounds %struct.moveType, ptr %85, i64 %87
  %89 = getelementptr inbounds nuw %struct.moveType, ptr %88, i32 0, i32 1
  %90 = load i32, ptr %89, align 4
  %91 = load i32, ptr %9, align 4
  %92 = icmp sgt i32 %90, %91
  br label %93

93:                                               ; preds = %83, %78
  %94 = phi i1 [ false, %78 ], [ %92, %83 ]
  br i1 %94, label %95, label %98

95:                                               ; preds = %93
  %96 = load i32, ptr %10, align 4
  %97 = add nsw i32 %96, 1
  store i32 %97, ptr %10, align 4
  br label %78, !llvm.loop !72

98:                                               ; preds = %93
  %99 = load i32, ptr %10, align 4
  %100 = icmp ne i32 %99, 0
  br i1 %100, label %101, label %104

101:                                              ; preds = %98
  %102 = load i32, ptr %10, align 4
  %103 = sub nsw i32 %102, 1
  store i32 %103, ptr %3, align 4
  br label %147

104:                                              ; preds = %98
  br label %146

105:                                              ; preds = %67
  %106 = getelementptr inbounds nuw %class.Moves, ptr %12, i32 0, i32 10
  %107 = load ptr, ptr %106, align 8
  %108 = getelementptr inbounds nuw %"struct.Moves::trackType", ptr %107, i32 0, i32 6
  %109 = getelementptr inbounds [4 x i32], ptr %108, i64 0, i64 1
  %110 = load i32, ptr %109, align 4
  %111 = icmp eq i32 %110, 1
  br i1 %111, label %112, label %145

112:                                              ; preds = %105
  store i32 0, ptr %11, align 4
  br label %113

113:                                              ; preds = %135, %112
  %114 = load i32, ptr %11, align 4
  %115 = getelementptr inbounds nuw %class.Moves, ptr %12, i32 0, i32 7
  %116 = load i32, ptr %115, align 4
  %117 = icmp slt i32 %114, %116
  br i1 %117, label %118, label %133

118:                                              ; preds = %113
  %119 = getelementptr inbounds nuw %class.Moves, ptr %12, i32 0, i32 12
  %120 = load ptr, ptr %119, align 8
  %121 = load i32, ptr %11, align 4
  %122 = sext i32 %121 to i64
  %123 = getelementptr inbounds %struct.moveType, ptr %120, i64 %122
  %124 = getelementptr inbounds nuw %struct.moveType, ptr %123, i32 0, i32 1
  %125 = load i32, ptr %124, align 4
  %126 = getelementptr inbounds nuw %class.Moves, ptr %12, i32 0, i32 10
  %127 = load ptr, ptr %126, align 8
  %128 = getelementptr inbounds nuw %"struct.Moves::trackType", ptr %127, i32 0, i32 5
  %129 = getelementptr inbounds [4 x %struct.extCard], ptr %128, i64 0, i64 1
  %130 = getelementptr inbounds nuw %struct.extCard, ptr %129, i32 0, i32 1
  %131 = load i32, ptr %130, align 4
  %132 = icmp sgt i32 %125, %131
  br label %133

133:                                              ; preds = %118, %113
  %134 = phi i1 [ false, %113 ], [ %132, %118 ]
  br i1 %134, label %135, label %138

135:                                              ; preds = %133
  %136 = load i32, ptr %11, align 4
  %137 = add nsw i32 %136, 1
  store i32 %137, ptr %11, align 4
  br label %113, !llvm.loop !73

138:                                              ; preds = %133
  %139 = load i32, ptr %11, align 4
  %140 = icmp ne i32 %139, 0
  br i1 %140, label %141, label %144

141:                                              ; preds = %138
  %142 = load i32, ptr %11, align 4
  %143 = sub nsw i32 %142, 1
  store i32 %143, ptr %3, align 4
  br label %147

144:                                              ; preds = %138
  br label %145

145:                                              ; preds = %144, %105
  br label %146

146:                                              ; preds = %145, %104
  store i32 -1, ptr %3, align 4
  br label %147

147:                                              ; preds = %146, %141, %101, %54
  %148 = load i32, ptr %3, align 4
  ret i32 %148
}