; Function Attrs: mustprogress nofree norecurse nosync nounwind willreturn memory(read, inaccessiblemem: none) uwtable
define noundef range(i32 -2147483648, 2147483647) i32 @_ZNK5Moves13RankForcesAceEi(ptr nocapture noundef nonnull readonly align 8 dereferenceable(39992) %0, i32 noundef %1) local_unnamed_addr #8 align 2 {
  %3 = sext i32 %1 to i64
  %4 = getelementptr inbounds [8192 x %struct.moveGroupType], ptr @groupData, i64 0, i64 %3
  %5 = load i32, ptr %4, align 4
  %6 = getelementptr inbounds nuw i8, ptr %0, i64 2896
  %7 = load ptr, ptr %6, align 8
  %8 = getelementptr inbounds nuw i8, ptr %7, i64 204
  %9 = getelementptr inbounds nuw i8, ptr %0, i64 4
  %10 = load i32, ptr %9, align 4
  %11 = sext i32 %10 to i64
  %12 = getelementptr inbounds [4 x i32], ptr %8, i64 0, i64 %11
  %13 = load i32, ptr %12, align 4
  %14 = icmp sgt i32 %5, 0
  br i1 %14, label %.lr.ph, label %.critedge

.lr.ph:                                           ; preds = %2
  %15 = getelementptr inbounds nuw i8, ptr %4, i64 88
  br label %16

16:                                               ; preds = %.lr.ph, %22
  %.03241 = phi i32 [ %5, %.lr.ph ], [ %23, %22 ]
  %17 = zext nneg i32 %.03241 to i64
  %18 = getelementptr inbounds [7 x i32], ptr %15, i64 0, i64 %17
  %19 = load i32, ptr %18, align 4
  %20 = and i32 %19, %13
  %21 = icmp eq i32 %20, %19
  br i1 %21, label %22, label %.critedge.thread

22:                                               ; preds = %16
  %23 = add nsw i32 %.03241, -1
  %24 = icmp sgt i32 %.03241, 1
  br i1 %24, label %16, label %.critedge2, !llvm.loop !23

.critedge:                                        ; preds = %2
  %.not = icmp eq i32 %5, 0
  br i1 %.not, label %.critedge2, label %.critedge.thread

.critedge.thread:                                 ; preds = %16, %.critedge
  %.03240 = phi i32 [ %5, %.critedge ], [ %.03241, %16 ]
  %25 = getelementptr inbounds nuw i8, ptr %4, i64 4
  %26 = add nsw i32 %.03240, -1
  %27 = sext i32 %26 to i64
  %28 = getelementptr inbounds [7 x i32], ptr %25, i64 0, i64 %27
  %29 = load i32, ptr %28, align 4
  %30 = getelementptr inbounds i8, ptr %7, i64 92
  %31 = load i32, ptr %30, align 4
  %32 = icmp sgt i32 %29, %31
  br i1 %32, label %.preheader, label %45

.preheader:                                       ; preds = %.critedge.thread
  %33 = getelementptr inbounds nuw i8, ptr %0, i64 28
  %34 = load i32, ptr %33, align 4
  %35 = icmp sgt i32 %34, 0
  br i1 %35, label %.lr.ph48, label %.critedge2

.lr.ph48:                                         ; preds = %.preheader
  %36 = getelementptr inbounds nuw i8, ptr %0, i64 14968
  %37 = load ptr, ptr %36, align 8
  %wide.trip.count57 = zext nneg i32 %34 to i64
  br label %38

38:                                               ; preds = %.lr.ph48, %42
  %indvars.iv54 = phi i64 [ 0, %.lr.ph48 ], [ %indvars.iv.next55, %42 ]
  %39 = getelementptr inbounds %struct.moveType, ptr %37, i64 %indvars.iv54, i32 1
  %40 = load i32, ptr %39, align 4
  %41 = icmp sgt i32 %40, %29
  br i1 %41, label %42, label %.critedge2.loopexit.split.loop.exit66

42:                                               ; preds = %38
  %indvars.iv.next55 = add nuw nsw i64 %indvars.iv54, 1
  %exitcond58.not = icmp eq i64 %indvars.iv.next55, %wide.trip.count57
  br i1 %exitcond58.not, label %.critedge2.loopexit, label %38, !llvm.loop !24

.critedge2.loopexit.split.loop.exit66:            ; preds = %38
  %43 = trunc nuw nsw i64 %indvars.iv54 to i32
  br label %.critedge2.loopexit

.critedge2.loopexit:                              ; preds = %42, %.critedge2.loopexit.split.loop.exit66
  %.030.lcssa.ph = phi i32 [ %43, %.critedge2.loopexit.split.loop.exit66 ], [ %34, %42 ]
  %44 = add nsw i32 %.030.lcssa.ph, -1
  br label %.critedge2

45:                                               ; preds = %.critedge.thread
  %46 = getelementptr inbounds i8, ptr %7, i64 128
  %47 = load i32, ptr %46, align 4
  %48 = icmp eq i32 %47, 1
  br i1 %48, label %.preheader38, label %.critedge2

.preheader38:                                     ; preds = %45
  %49 = getelementptr inbounds nuw i8, ptr %0, i64 28
  %50 = load i32, ptr %49, align 4
  %51 = icmp sgt i32 %50, 0
  br i1 %51, label %.lr.ph43, label %.critedge2

.lr.ph43:                                         ; preds = %.preheader38
  %52 = getelementptr inbounds nuw i8, ptr %0, i64 14968
  %53 = load ptr, ptr %52, align 8
  %wide.trip.count = zext nneg i32 %50 to i64
  br label %54

54:                                               ; preds = %.lr.ph43, %58
  %indvars.iv = phi i64 [ 0, %.lr.ph43 ], [ %indvars.iv.next, %58 ]
  %55 = getelementptr inbounds %struct.moveType, ptr %53, i64 %indvars.iv, i32 1
  %56 = load i32, ptr %55, align 4
  %57 = icmp sgt i32 %56, %31
  br i1 %57, label %58, label %.critedge4.loopexit.split.loop.exit64

58:                                               ; preds = %54
  %indvars.iv.next = add nuw nsw i64 %indvars.iv, 1
  %exitcond.not = icmp eq i64 %indvars.iv.next, %wide.trip.count
  br i1 %exitcond.not, label %.critedge4.loopexit, label %54, !llvm.loop !25

.critedge4.loopexit.split.loop.exit64:            ; preds = %54
  %59 = trunc nuw nsw i64 %indvars.iv to i32
  br label %.critedge4.loopexit

.critedge4.loopexit:                              ; preds = %58, %.critedge4.loopexit.split.loop.exit64
  %.0.lcssa.ph = phi i32 [ %59, %.critedge4.loopexit.split.loop.exit64 ], [ %50, %58 ]
  %60 = add nsw i32 %.0.lcssa.ph, -1
  br label %.critedge2

.critedge2:                                       ; preds = %22, %.preheader38, %.critedge4.loopexit, %.preheader, %.critedge2.loopexit, %45, %.critedge
  %.031 = phi i32 [ -1, %.critedge ], [ -1, %45 ], [ -1, %.preheader ], [ %44, %.critedge2.loopexit ], [ -1, %.preheader38 ], [ %60, %.critedge4.loopexit ], [ -1, %22 ]
  ret i32 %.031
}